Certificate:
    Data:
        Version: 3 (0x2)
        Serial Number: 18190926481419058289 (0xfc732741543abc71)
    Signature Algorithm: sha1WithRSAEncryption
        Issuer: C=DE, O=Ultrascan Gateway, CN=UltrascanCA
        Validity
            Not Before: Jul 31 09:59:12 2013 GMT
            Not After : Jul 26 09:59:12 2033 GMT
        Subject: C=DE, O=Ultrascan Gateway, CN=UltrascanCA
        Subject Public Key Info:
            Public Key Algorithm: rsaEncryption
                Public-Key: (1024 bit)
                Modulus:
                    00:d9:73:90:72:32:93:31:f2:a7:ee:a9:dc:dd:43:
                    fb:ec:18:a6:95:ec:e9:e7:f1:dc:60:86:f1:99:29:
                    92:b8:14:1c:e7:3e:f6:11:68:27:56:83:33:a1:9c:
                    2b:10:69:71:58:2e:27:77:be:36:61:97:23:a6:4b:
                    84:06:bf:01:89:79:c0:99:43:b5:cb:6a:bb:15:02:
                    e1:6e:c6:9b:5c:71:1b:e2:16:fa:87:0b:86:a6:b3:
                    b7:a4:db:c3:a8:89:e8:13:19:7f:57:b7:b2:50:71:
                    b2:39:ad:e8:b9:c1:44:85:14:89:9d:d2:83:3d:fe:
                    0b:85:e6:a4:ca:c5:cc:8f:8d
                Exponent: 65537 (0x10001)
        X509v3 extensions:
            X509v3 Subject Key Identifier: 
                20:5B:94:1C:21:8E:06:09:D5:08:65:1A:00:E9:F1:62:53:F1:36:C2
            X509v3 Authority Key Identifier: 
                keyid:20:5B:94:1C:21:8E:06:09:D5:08:65:1A:00:E9:F1:62:53:F1:36:C2

            X509v3 Basic Constraints: 
                CA:TRUE
            X509v3 Key Usage: 
                Digital Signature, Non Repudiation, Certificate Sign, CRL Sign
            Netscape Cert Type: 
                SSL CA, S/MIME CA
    Signature Algorithm: sha1WithRSAEncryption
         c0:a9:a8:47:c3:55:f9:b7:60:db:fa:88:c0:8a:0f:f7:e6:af:
         9b:21:27:04:9f:13:f0:0b:61:8e:40:ff:7c:5b:34:57:c7:df:
         46:4f:f5:2e:fc:f5:76:56:85:73:58:3b:ea:79:c8:37:33:cd:
         85:3d:a8:df:50:7d:9f:58:fa:6a:9d:78:e9:b1:0e:56:af:ac:
         27:d3:4f:a9:d4:be:2f:02:1f:e2:e4:b2:ed:41:34:6b:a7:d6:
         16:49:07:f8:f8:46:db:d9:0c:10:2f:3e:7d:d0:3d:65:83:e1:
         ef:c6:f4:5c:47:8f:bc:32:83:9f:53:27:94:61:eb:56:32:cd:
         4a:04
-----BEGIN CERTIFICATE-----
MIICbDCCAdWgAwIBAgIJAPxzJ0FUOrxxMA0GCSqGSIb3DQEBBQUAMD8xCzAJBgNV
BAYTAkRFMRowGAYDVQQKDBFVbHRyYXNjYW4gR2F0ZXdheTEUMBIGA1UEAwwLVWx0
cmFzY2FuQ0EwHhcNMTMwNzMxMDk1OTEyWhcNMzMwNzI2MDk1OTEyWjA/MQswCQYD
VQQGEwJERTEaMBgGA1UECgwRVWx0cmFzY2FuIEdhdGV3YXkxFDASBgNVBAMMC1Vs
dHJhc2NhbkNBMIGfMA0GCSqGSIb3DQEBAQUAA4GNADCBiQKBgQDZc5ByMpMx8qfu
qdzdQ/vsGKaV7Onn8dxghvGZKZK4FBznPvYRaCdWgzOhnCsQaXFYLid3vjZhlyOm
S4QGvwGJecCZQ7XLarsVAuFuxptccRviFvqHC4ams7ek28OoiegTGX9Xt7JQcbI5
rei5wUSFFImd0oM9/guF5qTKxcyPjQIDAQABo3AwbjAdBgNVHQ4EFgQUIFuUHCGO
BgnVCGUaAOnxYlPxNsIwHwYDVR0jBBgwFoAUIFuUHCGOBgnVCGUaAOnxYlPxNsIw
DAYDVR0TBAUwAwEB/zALBgNVHQ8EBAMCAcYwEQYJYIZIAYb4QgEBBAQDAgEGMA0G
CSqGSIb3DQEBBQUAA4GBAMCpqEfDVfm3YNv6iMCKD/fmr5shJwSfE/ALYY5A/3xb
NFfH30ZP9S789XZWhXNYO+p5yDczzYU9qN9QfZ9Y+mqdeOmxDlavrCfTT6nUvi8C
H+Lksu1BNGun1hZJB/j4RtvZDBAvPn3QPWWD4e/G9FxHj7wyg59TJ5Rh61YyzUoE
-----END CERTIFICATE-----
