Certificate:
    Data:
        Version: 3 (0x2)
        Serial Number: 18 (0x12)
        Signature Algorithm: md5WithRSAEncryption
        Issuer: C=US, ST=Indiana, L=Bloomington, O=Indiana University, OU=Computer Science, CN=IU Services CA/emailAddress=drlead@extreme.indiana.edu
        Validity
            Not Before: Feb  5 15:51:38 2007 GMT
            Not After : Feb  4 15:51:38 2009 GMT
        Subject: C=US, ST=Indiana, L=Bloomington, O=Indiana University, OU=Computer Science, CN=anonymous
        Subject Public Key Info:
            Public Key Algorithm: rsaEncryption
            RSA Public Key: (2048 bit)
                Modulus (2048 bit):
                    00:e5:b9:72:06:71:4c:3d:d4:f1:4a:ec:85:79:ba:
                    87:ab:7c:a7:6b:a1:fe:0b:a5:14:5b:1d:15:4f:da:
                    b3:f9:21:93:b0:68:8d:b8:29:bb:ff:d7:ae:b5:fa:
                    db:d7:07:6e:24:34:ef:95:90:f2:06:e2:46:31:eb:
                    45:41:e9:8b:1d:d6:d1:90:c4:10:48:72:98:87:9b:
                    de:41:e0:93:6a:d0:4d:52:2b:9a:ca:40:0e:71:2c:
                    b9:5b:8c:aa:ad:4e:28:66:b4:87:25:41:6d:c5:ff:
                    56:85:5f:fe:85:bc:7a:47:3b:e8:ee:7d:c7:18:9c:
                    6b:9d:86:f2:02:c7:ac:77:d9:77:5b:5d:11:bd:9c:
                    89:1d:7c:b5:19:7a:9a:3b:70:49:74:6c:6a:6a:55:
                    4e:cf:a3:33:32:29:d8:3d:95:ee:78:94:14:76:3c:
                    76:b7:cc:9d:e0:93:f8:e3:84:ea:68:fc:5f:7e:3c:
                    b1:c0:87:97:11:76:9e:52:f3:f3:e3:af:6b:9b:05:
                    d7:2b:0c:f8:2a:2b:c6:55:27:2b:f6:66:57:88:4a:
                    42:e4:c3:2b:f0:b2:0e:35:73:39:ef:b4:83:91:ca:
                    65:bb:36:f9:89:50:47:42:1c:56:f5:44:64:2a:68:
                    15:4b:6c:a7:2c:93:54:ce:9b:49:cd:fc:4e:e1:59:
                    a2:d5
                Exponent: 65537 (0x10001)
        X509v3 extensions:
            X509v3 Basic Constraints: 
                CA:FALSE
            Netscape Cert Type: 
                SSL Server
            Netscape Comment: 
                TinyCA Generated Certificate
            X509v3 Subject Key Identifier: 
                AA:53:81:B5:E2:6F:FA:5D:83:66:63:1B:42:93:65:C9:73:37:56:39
            X509v3 Authority Key Identifier: 
                keyid:08:39:CF:7C:1A:0F:DF:D4:42:AF:5A:74:9F:47:21:B6:3C:66:D3:CA
                DirName:/C=US/ST=Indiana/L=Bloomington/O=Indiana University/OU=Computer Science/CN=IU Services CA/emailAddress=drlead@extreme.indiana.edu
                serial:00

            X509v3 Subject Alternative Name: 
                <EMPTY>

            X509v3 Issuer Alternative Name: 
                email:drlead@extreme.indiana.edu
    Signature Algorithm: md5WithRSAEncryption
        2e:b0:65:2c:bd:7f:3e:f7:da:cb:a3:32:b6:73:b2:99:21:04:
        a6:70:ea:dd:62:03:af:a6:81:f7:f4:d5:75:70:e7:a7:91:29:
        f7:a0:cc:0f:85:55:bb:c8:52:e5:52:e1:bb:a7:08:d2:1f:48:
        42:12:59:3b:b7:ba:ea:ec:26:02:11:8a:94:39:c1:89:63:79:
        28:6c:b7:32:94:0c:49:a3:89:12:9c:5f:3f:c4:ae:0f:79:4a:
        1b:2d:e4:67:6a:dc:5d:22:36:69:59:7e:01:ef:08:7f:22:49:
        c2:ef:a5:bf:32:56:8b:e2:c7:dd:c9:6a:98:76:fe:b5:87:0e:
        9b:7a:42:bc:bc:46:45:0b:80:75:fc:21:fb:0a:41:af:bc:40:
        06:c6:9e:c0:16:d9:c2:f5:e9:8d:dc:8c:9c:88:48:30:8e:fa:
        90:3c:86:7a:42:f1:8e:bc:2f:8a:e1:27:40:16:90:0f:29:1f:
        22:3b:dd:f2:85:4f:b6:a4:93:ac:a6:4d:c7:d4:50:02:a8:d6:
        b5:4c:08:7c:c0:35:e0:b5:9b:8a:8d:41:f6:74:3a:19:e0:28:
        70:b6:e8:bd:69:b8:2c:56:a0:44:de:fc:da:52:3f:63:d7:a3:
        d1:d5:33:db:de:e6:02:3a:94:b0:43:8b:51:ad:1f:30:b8:78:
        0b:4f:0c:24
-----BEGIN CERTIFICATE-----
MIIFMjCCBBqgAwIBAgIBEjANBgkqhkiG9w0BAQQFADCBsTELMAkGA1UEBhMCVVMx
EDAOBgNVBAgTB0luZGlhbmExFDASBgNVBAcTC0Jsb29taW5ndG9uMRswGQYDVQQK
ExJJbmRpYW5hIFVuaXZlcnNpdHkxGTAXBgNVBAsTEENvbXB1dGVyIFNjaWVuY2Ux
FzAVBgNVBAMTDklVIFNlcnZpY2VzIENBMSkwJwYJKoZIhvcNAQkBFhpkcmxlYWRA
ZXh0cmVtZS5pbmRpYW5hLmVkdTAeFw0wNzAyMDUxNTUxMzhaFw0wOTAyMDQxNTUx
MzhaMIGBMQswCQYDVQQGEwJVUzEQMA4GA1UECBMHSW5kaWFuYTEUMBIGA1UEBxML
Qmxvb21pbmd0b24xGzAZBgNVBAoTEkluZGlhbmEgVW5pdmVyc2l0eTEZMBcGA1UE
CxMQQ29tcHV0ZXIgU2NpZW5jZTESMBAGA1UEAxMJYW5vbnltb3VzMIIBIjANBgkq
hkiG9w0BAQEFAAOCAQ8AMIIBCgKCAQEA5blyBnFMPdTxSuyFebqHq3yna6H+C6UU
Wx0VT9qz+SGTsGiNuCm7/9eutfrb1wduJDTvlZDyBuJGMetFQemLHdbRkMQQSHKY
h5veQeCTatBNUiuaykAOcSy5W4yqrU4oZrSHJUFtxf9WhV/+hbx6Rzvo7n3HGJxr
nYbyAsesd9l3W10RvZyJHXy1GXqaO3BJdGxqalVOz6MzMinYPZXueJQUdjx2t8yd
4JP444TqaPxffjyxwIeXEXaeUvPz469rmwXXKwz4KivGVScr9mZXiEpC5MMr8LIO
NXM577SDkcpluzb5iVBHQhxW9URkKmgVS2ynLJNUzptJzfxO4Vmi1QIDAQABo4IB
gTCCAX0wCQYDVR0TBAIwADARBglghkgBhvhCAQEEBAMCBkAwKwYJYIZIAYb4QgEN
BB4WHFRpbnlDQSBHZW5lcmF0ZWQgQ2VydGlmaWNhdGUwHQYDVR0OBBYEFKpTgbXi
b/pdg2ZjG0KTZclzN1Y5MIHeBgNVHSMEgdYwgdOAFAg5z3waD9/UQq9adJ9HIbY8
ZtPKoYG3pIG0MIGxMQswCQYDVQQGEwJVUzEQMA4GA1UECBMHSW5kaWFuYTEUMBIG
A1UEBxMLQmxvb21pbmd0b24xGzAZBgNVBAoTEkluZGlhbmEgVW5pdmVyc2l0eTEZ
MBcGA1UECxMQQ29tcHV0ZXIgU2NpZW5jZTEXMBUGA1UEAxMOSVUgU2VydmljZXMg
Q0ExKTAnBgkqhkiG9w0BCQEWGmRybGVhZEBleHRyZW1lLmluZGlhbmEuZWR1ggEA
MAkGA1UdEQQCMAAwJQYDVR0SBB4wHIEaZHJsZWFkQGV4dHJlbWUuaW5kaWFuYS5l
ZHUwDQYJKoZIhvcNAQEEBQADggEBAC6wZSy9fz732sujMrZzspkhBKZw6t1iA6+m
gff01XVw56eRKfegzA+FVbvIUuVS4bunCNIfSEISWTu3uursJgIRipQ5wYljeShs
tzKUDEmjiRKcXz/Erg95Shst5Gdq3F0iNmlZfgHvCH8iScLvpb8yVovix93Japh2
/rWHDpt6Qry8RkULgHX8IfsKQa+8QAbGnsAW2cL16Y3cjJyISDCO+pA8hnpC8Y68
L4rhJ0AWkA8pHyI73fKFT7akk6ymTcfUUAKo1rVMCHzANeC1m4qNQfZ0OhngKHC2
6L1puCxWoETe/NpSP2PXo9HVM9ve5gI6lLBDi1GtHzC4eAtPDCQ=
-----END CERTIFICATE-----
-----BEGIN RSA PRIVATE KEY-----
MIIEowIBAAKCAQEA5blyBnFMPdTxSuyFebqHq3yna6H+C6UUWx0VT9qz+SGTsGiN
uCm7/9eutfrb1wduJDTvlZDyBuJGMetFQemLHdbRkMQQSHKYh5veQeCTatBNUiua
ykAOcSy5W4yqrU4oZrSHJUFtxf9WhV/+hbx6Rzvo7n3HGJxrnYbyAsesd9l3W10R
vZyJHXy1GXqaO3BJdGxqalVOz6MzMinYPZXueJQUdjx2t8yd4JP444TqaPxffjyx
wIeXEXaeUvPz469rmwXXKwz4KivGVScr9mZXiEpC5MMr8LIONXM577SDkcpluzb5
iVBHQhxW9URkKmgVS2ynLJNUzptJzfxO4Vmi1QIDAQABAoIBAFHpNccmTtEdRIw6
mb01zXpQEEJImJT+X6u9SwQWL2X9mvOj1CR+fRJUjW9F621YsOUoGuVxsVrTA8R4
51EBPSF+n2rG/idW9Rwlb7J9qRLFA0zxT1geTwf7snv6REFXRQCaDjYyhjm7OdaE
y/RTqCYOLpgbMQqNe7HHlDN5jv2MV/Sp59Cods+xiLe2zl6rv4H3vHbrUSx+3n5C
PGMNB7ib1legFF7n8ge/OnYATe7zeH7k4NAZXGoGryTLhb6/LNYoe78TCSATcL9T
Dy7NkYRtsfIoNbkRjXy5EgxYdjbTi0LwJw2oqP9cTYSg0GPrHWHdPWe7GmI3LJJg
huQ53mECgYEA/K+GpblL1FohCCum3kjMhgSODVgBa8oyP+5HEo48Pysj9mJSYTeA
GPvMxktwltpteOmqhFZfM6dGgGSJjmjqNDdo7iqibn2TEgxC/tYiYGCybIYxAP2L
VRMsKKmUthlakQfcld0N5qrFv/WAnQCCJJhleRec2LORsRMaZNjicg8CgYEA6LzR
0MazTuwbhINCtX1wsETB5bgPQ0DcinpNk+85qlUy9JXnUsYDl2OrN0T3GUia6eKD
SBc5sR2OOxPll5Xin+L8J8Hw+ivjoOK/YiDqITNYfZcp4EP24wuYJiks1UdAOAPF
M8HSeWS2ELj4C3jTFUdgO0Lhml8HrokiUQwM8NsCgYAsvpQ0QmSYHMGepcQttmxp
CuNwn3XY9XwCcBorwf4PHX+HwI9f4akQQ35WWsN8Iv+hmpb0SisfhW5pi+QD0LYw
OuOc0PXkZN4nIv62C4sYz+aoavbAeyUyEmwOY0EPIdw0tFSuQO+WOgU8Yae9pXpm
KopFcBX5FYsl9QEGfJVUpwKBgBjXRoHFI5BR7SH4rJ8Yc3Ws8REm0yI3gxKYuT0H
9Jy0mUq30UfpcKqw7a5pgwJE2JwMHD0OlY7M+8hceE30poqwPH+12JWrJ5GdghXk
M3k1tMU65DJWrrxPGX9BN9LP1w/jfyHmFyPz1ub0By2aSNVll+TbX58Nc5Fye6Iw
6hSvAoGBAKjUKd9AWQnzCi5tNmxnCflloTHa/MmDiU9+h+Hg59dBRcNOD7Iepteq
uey3g6qIxulmLdwsxfZOzN9g7jdVkYDaqxP5tBQXgySXsTrCk7FfYXBKiB816t8N
C2Bkx6jeWcE4dlvagMwcQ4D1c3HmgEAANl0txXZ8BuyAx1jPkX5+
-----END RSA PRIVATE KEY-----
